; Function Attrs: mustprogress nounwind uwtable
define hidden void @_ZN10DictionaryD2Ev(ptr nocapture noundef nonnull readonly align 8 dereferenceable(24) %0) unnamed_addr #0 align 2 {
  %2 = getelementptr inbounds i8, ptr %0, i64 8
  %3 = load ptr, ptr %2, align 8
  %4 = icmp eq ptr %3, null
  br i1 %4, label %6, label %5

5:                                                ; preds = %1
  tail call void @_ZN19ConcurrentHashTableIN10Dictionary6ConfigEL8MEMFLAGS1EED2Ev(ptr noundef nonnull align 8 dereferenceable(88) %3) #15
  tail call void @_Z8FreeHeapPv(ptr noundef nonnull %3) #15
  br label %6

6:                                                ; preds = %5, %1
  ret void
}